; Function Attrs: nounwind uwtable
define range(i32 -1, 1) i32 @H5B2_insert(ptr noundef readonly captures(none) %0, ptr noundef %1) local_unnamed_addr #0 {
  %3 = load i8, ptr @H5B2_init_g, align 1, !tbaa !3, !range !7, !noundef !8
  %4 = trunc nuw i8 %3 to i1
  %5 = load i8, ptr @H5_libterm_g, align 1, !range !7
  %6 = trunc nuw i8 %5 to i1
  %7 = select i1 %4, i1 true, i1 %6
  br i1 %7, label %8, label %.thread, !prof !9

.thread:                                          ; preds = %2
  store i8 1, ptr @H5B2_init_g, align 1, !tbaa !3
  br label %11

8:                                                ; preds = %2
  %9 = xor i1 %6, true
  %10 = select i1 %4, i1 true, i1 %9
  br i1 %10, label %11, label %22, !prof !10

11:                                               ; preds = %.thread, %8
  %12 = getelementptr inbounds nuw i8, ptr %0, i64 8
  %13 = load ptr, ptr %12, align 8, !tbaa !18
  %14 = load ptr, ptr %0, align 8, !tbaa !13
  %15 = getelementptr inbounds nuw i8, ptr %14, i64 288
  store ptr %13, ptr %15, align 8, !tbaa !19
  %16 = tail call i32 @H5B2__insert(ptr noundef %14, ptr noundef %1) #7
  %17 = icmp slt i32 %16, 0
  br i1 %17, label %18, label %22

18:                                               ; preds = %11
  %19 = load i64, ptr @H5E_BTREE_g, align 8, !tbaa !11
  %20 = load i64, ptr @H5E_CANTINSERT_g, align 8, !tbaa !11
  %21 = tail call i32 (ptr, ptr, i32, i64, i64, ptr, ...) @H5E_printf_stack(ptr noundef nonnull @.str, ptr noundef nonnull @__func__.H5B2_insert, i32 noundef 270, i64 noundef %19, i64 noundef %20, ptr noundef nonnull @.str.9) #7
  br label %22

22:                                               ; preds = %18, %11, %8
  %.0 = phi i32 [ -1, %18 ], [ 0, %11 ], [ 0, %8 ]
  ret i32 %.0
}